target datalayout = "e-m:e-p270:32:32-p271:32:32-p272:64:64-i64:64-i128:128-f80:128-n8:16:32:64-S128"
target triple = "x86_64-pc-linux-gnu"

%struct.H5L_class_t = type { i32, i32, ptr, ptr, ptr, ptr, ptr, ptr, ptr }
%struct.H5O_link_t = type { i32, i8, i64, i32, ptr, %union.anon }
%union.anon = type { %struct.H5O_link_ud_t }
%struct.H5O_link_ud_t = type { ptr, i64 }

@.str = private unnamed_addr constant [100 x i8] c"generated/home/dtcxzyw/WorkSpace/Projects/compilers/llvm-opt-benchmark/bench/hdf5/hdf5/src/H5Lint.c\00", align 1
@H5E_LINK_g = external global i64, align 8
@H5L_table_g = internal global ptr null, align 8
@H5L_table_used_g = internal global i64 0, align 8
@H5E_CANTINIT_g = external global i64, align 8
@__func__.H5L__create_ud = private unnamed_addr constant [15 x i8] c"H5L__create_ud\00", align 1
@H5E_ARGS_g = external global i64, align 8
@H5E_BADTYPE_g = external global i64, align 8
@.str.9 = private unnamed_addr constant [48 x i8] c"link class has not been registered with library\00", align 1
@.str.10 = private unnamed_addr constant [39 x i8] c"unable to register new name for object\00", align 1

; Function Attrs: nounwind uwtable
define internal i32 @H5L__find_class_idx(i32 noundef %0) #0 {
  %2 = alloca i32, align 4
  %3 = alloca i64, align 8
  %4 = alloca i32, align 4
  store i32 %0, ptr %2, align 4
  store i32 -1, ptr %4, align 4
  store i64 0, ptr %3, align 8
  br label %5

5:                                                ; preds = %23, %1
  %6 = load i64, ptr %3, align 8
  %7 = load i64, ptr @H5L_table_used_g, align 8
  %8 = icmp ult i64 %6, %7
  br i1 %8, label %9, label %26

9:                                                ; preds = %5
  %10 = load ptr, ptr @H5L_table_g, align 8
  %11 = load i64, ptr %3, align 8
  %12 = getelementptr inbounds %struct.H5L_class_t, ptr %10, i64 %11
  %13 = getelementptr inbounds %struct.H5L_class_t, ptr %12, i32 0, i32 1
  %14 = load i32, ptr %13, align 4
  %15 = load i32, ptr %2, align 4
  %16 = icmp eq i32 %14, %15
  br i1 %16, label %17, label %22

17:                                               ; preds = %9
  br label %18

18:                                               ; preds = %17
  %19 = load i64, ptr %3, align 8
  %20 = trunc i64 %19 to i32
  store i32 %20, ptr %4, align 4
  br label %27

21:                                               ; No predecessors!
  br label %22

22:                                               ; preds = %21, %9
  br label %23

23:                                               ; preds = %22
  %24 = load i64, ptr %3, align 8
  %25 = add i64 %24, 1
  store i64 %25, ptr %3, align 8
  br label %5

26:                                               ; preds = %5
  br label %27

27:                                               ; preds = %26, %18
  %28 = load i32, ptr %4, align 4
  ret i32 %28
}

; Function Attrs: nounwind uwtable
define i32 @H5L__create_ud(ptr noundef %0, ptr noundef %1, ptr noundef %2, i64 noundef %3, i32 noundef %4, i64 noundef %5) #0 {
  %7 = alloca ptr, align 8
  %8 = alloca ptr, align 8
  %9 = alloca ptr, align 8
  %10 = alloca i64, align 8
  %11 = alloca i32, align 4
  %12 = alloca i64, align 8
  %13 = alloca %struct.H5O_link_t, align 8
  %14 = alloca i32, align 4
  %15 = alloca i8, align 1
  store ptr %0, ptr %7, align 8
  store ptr %1, ptr %8, align 8
  store ptr %2, ptr %9, align 8
  store i64 %3, ptr %10, align 8
  store i32 %4, ptr %11, align 4
  store i64 %5, ptr %12, align 8
  store i32 0, ptr %14, align 4
  store i8 0, ptr %15, align 1
  %16 = getelementptr inbounds %struct.H5O_link_t, ptr %13, i32 0, i32 5
  %17 = getelementptr inbounds %struct.H5O_link_ud_t, ptr %16, i32 0, i32 0
  store ptr null, ptr %17, align 8
  %18 = load i32, ptr %11, align 4
  %19 = call i32 @H5L__find_class_idx(i32 noundef %18)
  %20 = icmp slt i32 %19, 0
  br i1 %20, label %21, label %36

21:                                               ; preds = %6
  br label %22

22:                                               ; preds = %21
  br label %23

23:                                               ; preds = %22
  br label %24

24:                                               ; preds = %23
  %25 = load i64, ptr @H5E_ARGS_g, align 8
  %26 = load i64, ptr @H5E_BADTYPE_g, align 8
  %27 = call i32 (ptr, ptr, i32, i64, i64, ptr, ...) @H5E_printf_stack(ptr noundef @.str, ptr noundef @__func__.H5L__create_ud, i32 noundef 884, i64 noundef %25, i64 noundef %26, ptr noundef @.str.9)
  br label %28

28:                                               ; preds = %24
  store i8 1, ptr %15, align 1
  %29 = load i8, ptr %15, align 1
  %30 = trunc i8 %29 to i1
  %31 = zext i1 %30 to i8
  store i8 %31, ptr %15, align 1
  br label %32

32:                                               ; preds = %28
  br label %33

33:                                               ; preds = %32
  store i32 -1, ptr %14, align 4
  br label %79

34:                                               ; No predecessors!
  br label %35

35:                                               ; preds = %34
  br label %36

36:                                               ; preds = %35, %6
  %37 = load i64, ptr %10, align 8
  %38 = icmp ugt i64 %37, 0
  br i1 %38, label %39, label %49

39:                                               ; preds = %36
  %40 = load i64, ptr %10, align 8
  %41 = call noalias ptr @malloc(i64 noundef %40) #7
  %42 = getelementptr inbounds %struct.H5O_link_t, ptr %13, i32 0, i32 5
  %43 = getelementptr inbounds %struct.H5O_link_ud_t, ptr %42, i32 0, i32 0
  store ptr %41, ptr %43, align 8
  %44 = getelementptr inbounds %struct.H5O_link_t, ptr %13, i32 0, i32 5
  %45 = getelementptr inbounds %struct.H5O_link_ud_t, ptr %44, i32 0, i32 0
  %46 = load ptr, ptr %45, align 8
  %47 = load ptr, ptr %9, align 8
  %48 = load i64, ptr %10, align 8
  call void @llvm.memcpy.p0.p0.i64(ptr align 1 %46, ptr align 1 %47, i64 %48, i1 false)
  br label %52

49:                                               ; preds = %36
  %50 = getelementptr inbounds %struct.H5O_link_t, ptr %13, i32 0, i32 5
  %51 = getelementptr inbounds %struct.H5O_link_ud_t, ptr %50, i32 0, i32 0
  store ptr null, ptr %51, align 8
  br label %52

52:                                               ; preds = %49, %39
  %53 = load i64, ptr %10, align 8
  %54 = getelementptr inbounds %struct.H5O_link_t, ptr %13, i32 0, i32 5
  %55 = getelementptr inbounds %struct.H5O_link_ud_t, ptr %54, i32 0, i32 1
  store i64 %53, ptr %55, align 8
  %56 = load i32, ptr %11, align 4
  %57 = getelementptr inbounds %struct.H5O_link_t, ptr %13, i32 0, i32 0
  store i32 %56, ptr %57, align 8
  %58 = load ptr, ptr %7, align 8
  %59 = load ptr, ptr %8, align 8
  %60 = load i64, ptr %12, align 8
  %61 = call i32 @H5L__create_real(ptr noundef %58, ptr noundef %59, ptr noundef null, ptr noundef null, ptr noundef %13, ptr noundef null, i64 noundef %60)
  %62 = icmp slt i32 %61, 0
  br i1 %62, label %63, label %78

63:                                               ; preds = %52
  br label %64

64:                                               ; preds = %63
  br label %65

65:                                               ; preds = %64
  br label %66

66:                                               ; preds = %65
  %67 = load i64, ptr @H5E_LINK_g, align 8
  %68 = load i64, ptr @H5E_CANTINIT_g, align 8
  %69 = call i32 (ptr, ptr, i32, i64, i64, ptr, ...) @H5E_printf_stack(ptr noundef @.str, ptr noundef @__func__.H5L__create_ud, i32 noundef 899, i64 noundef %67, i64 noundef %68, ptr noundef @.str.10)
  br label %70

70:                                               ; preds = %66
  store i8 1, ptr %15, align 1
  %71 = load i8, ptr %15, align 1
  %72 = trunc i8 %71 to i1
  %73 = zext i1 %72 to i8
  store i8 %73, ptr %15, align 1
  br label %74

74:                                               ; preds = %70
  br label %75

75:                                               ; preds = %74
  store i32 -1, ptr %14, align 4
  br label %79

76:                                               ; No predecessors!
  br label %77

77:                                               ; preds = %76
  br label %78

78:                                               ; preds = %77, %52
  br label %79

79:                                               ; preds = %78, %75, %33
  %80 = getelementptr inbounds %struct.H5O_link_t, ptr %13, i32 0, i32 5
  %81 = getelementptr inbounds %struct.H5O_link_ud_t, ptr %80, i32 0, i32 0
  %82 = load ptr, ptr %81, align 8
  %83 = call ptr @H5MM_xfree(ptr noundef %82)
  %84 = load i32, ptr %14, align 4
  ret i32 %84
}