; Function Attrs: nounwind uwtable
define range(i32 -1, 1) i32 @H5L__create_ud(ptr noundef %0, ptr noundef %1, ptr nocapture noundef readonly %2, i64 noundef %3, i32 noundef %4, i64 noundef %5) local_unnamed_addr #0 {
  %7 = alloca %struct.H5O_link_t, align 8
  %8 = getelementptr inbounds i8, ptr %7, i64 32
  store ptr null, ptr %8, align 8
  %9 = load i64, ptr @H5L_table_used_g, align 8
  %.not.i = icmp eq i64 %9, 0
  br i1 %.not.i, label %H5L__find_class_idx.exit.thread, label %.lr.ph.i

.lr.ph.i:                                         ; preds = %6
  %10 = load ptr, ptr @H5L_table_g, align 8
  br label %11

11:                                               ; preds = %15, %.lr.ph.i
  %.068.i = phi i64 [ 0, %.lr.ph.i ], [ %16, %15 ]
  %12 = getelementptr inbounds %struct.H5L_class_t, ptr %10, i64 %.068.i, i32 1
  %13 = load i32, ptr %12, align 4
  %14 = icmp eq i32 %13, %4
  br i1 %14, label %H5L__find_class_idx.exit, label %15

15:                                               ; preds = %11
  %16 = add nuw i64 %.068.i, 1
  %exitcond.not.i = icmp eq i64 %16, %9
  br i1 %exitcond.not.i, label %H5L__find_class_idx.exit.thread, label %11

H5L__find_class_idx.exit:                         ; preds = %11
  %17 = and i64 %.068.i, 2147483648
  %.not14 = icmp eq i64 %17, 0
  br i1 %.not14, label %21, label %H5L__find_class_idx.exit.thread

H5L__find_class_idx.exit.thread:                  ; preds = %15, %6, %H5L__find_class_idx.exit
  %18 = load i64, ptr @H5E_ARGS_g, align 8
  %19 = load i64, ptr @H5E_BADTYPE_g, align 8
  %20 = tail call i32 (ptr, ptr, i32, i64, i64, ptr, ...) @H5E_printf_stack(ptr noundef nonnull @.str, ptr noundef nonnull @__func__.H5L__create_ud, i32 noundef 884, i64 noundef %18, i64 noundef %19, ptr noundef nonnull @.str.9) #10
  br label %32

21:                                               ; preds = %H5L__find_class_idx.exit
  %.not = icmp eq i64 %3, 0
  br i1 %.not, label %24, label %22

22:                                               ; preds = %21
  %23 = tail call noalias ptr @malloc(i64 noundef %3) #11
  tail call void @llvm.memcpy.p0.p0.i64(ptr align 1 %23, ptr align 1 %2, i64 %3, i1 false)
  br label %24

24:                                               ; preds = %21, %22
  %.sink = phi ptr [ %23, %22 ], [ null, %21 ]
  store ptr %.sink, ptr %8, align 8
  %25 = getelementptr inbounds i8, ptr %7, i64 40
  store i64 %3, ptr %25, align 8
  store i32 %4, ptr %7, align 8
  %26 = call fastcc i32 @H5L__create_real(ptr noundef %0, ptr noundef %1, ptr noundef null, ptr noundef null, ptr noundef nonnull %7, ptr noundef null, i64 noundef %5)
  %27 = icmp slt i32 %26, 0
  br i1 %27, label %28, label %32

28:                                               ; preds = %24
  %29 = load i64, ptr @H5E_LINK_g, align 8
  %30 = load i64, ptr @H5E_CANTINIT_g, align 8
  %31 = call i32 (ptr, ptr, i32, i64, i64, ptr, ...) @H5E_printf_stack(ptr noundef nonnull @.str, ptr noundef nonnull @__func__.H5L__create_ud, i32 noundef 899, i64 noundef %29, i64 noundef %30, ptr noundef nonnull @.str.10) #10
  br label %32

32:                                               ; preds = %24, %28, %H5L__find_class_idx.exit.thread
  %.0 = phi i32 [ -1, %H5L__find_class_idx.exit.thread ], [ -1, %28 ], [ 0, %24 ]
  %33 = load ptr, ptr %8, align 8
  %34 = call ptr @H5MM_xfree(ptr noundef %33) #10
  ret i32 %.0
}